target datalayout = "e-m:e-p270:32:32-p271:32:32-p272:64:64-i64:64-i128:128-f80:128-n8:16:32:64-S128"
target triple = "x86_64-pc-linux-gnu"

@bio_err = external global ptr, align 8
@.str.109 = private unnamed_addr constant [37 x i8] c"Call to SSL_CONF_cmd(%s, %s) failed\0A\00", align 1
@.str.110 = private unnamed_addr constant [7 x i8] c"<NULL>\00", align 1
@.str.111 = private unnamed_addr constant [25 x i8] c"Error finishing context\0A\00", align 1

; Function Attrs: inlinehint nounwind uwtable
define internal ptr @ossl_check_const_OPENSSL_STRING_sk_type(ptr noundef %0) #7 {
  %2 = alloca ptr, align 8
  store ptr %0, ptr %2, align 8, !tbaa !95
  %3 = load ptr, ptr %2, align 8, !tbaa !95
  ret ptr %3
}

; Function Attrs: nounwind uwtable
define i32 @config_ctx(ptr noundef %0, ptr noundef %1, ptr noundef %2) #0 {
  %4 = alloca i32, align 4
  %5 = alloca ptr, align 8
  %6 = alloca ptr, align 8
  %7 = alloca ptr, align 8
  %8 = alloca i32, align 4
  %9 = alloca ptr, align 8
  %10 = alloca ptr, align 8
  %11 = alloca i32, align 4
  store ptr %0, ptr %5, align 8, !tbaa !93
  store ptr %1, ptr %6, align 8, !tbaa !95
  store ptr %2, ptr %7, align 8, !tbaa !19
  call void @llvm.lifetime.start.p0(i64 4, ptr %8) #10
  %12 = load ptr, ptr %5, align 8, !tbaa !93
  %13 = load ptr, ptr %7, align 8, !tbaa !19
  call void @SSL_CONF_CTX_set_ssl_ctx(ptr noundef %12, ptr noundef %13)
  store i32 0, ptr %8, align 4, !tbaa !3
  br label %14

14:                                               ; preds = %51, %3
  %15 = load i32, ptr %8, align 4, !tbaa !3
  %16 = load ptr, ptr %6, align 8, !tbaa !95
  %17 = call ptr @ossl_check_const_OPENSSL_STRING_sk_type(ptr noundef %16)
  %18 = call i32 @OPENSSL_sk_num(ptr noundef %17)
  %19 = icmp slt i32 %15, %18
  br i1 %19, label %20, label %54

20:                                               ; preds = %14
  call void @llvm.lifetime.start.p0(i64 8, ptr %9) #10
  %21 = load ptr, ptr %6, align 8, !tbaa !95
  %22 = call ptr @ossl_check_const_OPENSSL_STRING_sk_type(ptr noundef %21)
  %23 = load i32, ptr %8, align 4, !tbaa !3
  %24 = call ptr @OPENSSL_sk_value(ptr noundef %22, i32 noundef %23)
  store ptr %24, ptr %9, align 8, !tbaa !21
  call void @llvm.lifetime.start.p0(i64 8, ptr %10) #10
  %25 = load ptr, ptr %6, align 8, !tbaa !95
  %26 = call ptr @ossl_check_const_OPENSSL_STRING_sk_type(ptr noundef %25)
  %27 = load i32, ptr %8, align 4, !tbaa !3
  %28 = add nsw i32 %27, 1
  %29 = call ptr @OPENSSL_sk_value(ptr noundef %26, i32 noundef %28)
  store ptr %29, ptr %10, align 8, !tbaa !21
  %30 = load ptr, ptr %5, align 8, !tbaa !93
  %31 = load ptr, ptr %9, align 8, !tbaa !21
  %32 = load ptr, ptr %10, align 8, !tbaa !21
  %33 = call i32 @SSL_CONF_cmd(ptr noundef %30, ptr noundef %31, ptr noundef %32)
  %34 = icmp sle i32 %33, 0
  br i1 %34, label %35, label %47

35:                                               ; preds = %20
  %36 = load ptr, ptr @bio_err, align 8, !tbaa !14
  %37 = load ptr, ptr %9, align 8, !tbaa !21
  %38 = load ptr, ptr %10, align 8, !tbaa !21
  %39 = icmp eq ptr %38, null
  br i1 %39, label %40, label %41

40:                                               ; preds = %35
  br label %43

41:                                               ; preds = %35
  %42 = load ptr, ptr %10, align 8, !tbaa !21
  br label %43

43:                                               ; preds = %41, %40
  %44 = phi ptr [ @.str.110, %40 ], [ %42, %41 ]
  %45 = call i32 (ptr, ptr, ...) @BIO_printf(ptr noundef %36, ptr noundef @.str.109, ptr noundef %37, ptr noundef %44)
  %46 = load ptr, ptr @bio_err, align 8, !tbaa !14
  call void @ERR_print_errors(ptr noundef %46)
  store i32 0, ptr %4, align 4
  store i32 1, ptr %11, align 4
  br label %48

47:                                               ; preds = %20
  store i32 0, ptr %11, align 4
  br label %48

48:                                               ; preds = %47, %43
  call void @llvm.lifetime.end.p0(i64 8, ptr %10) #10
  call void @llvm.lifetime.end.p0(i64 8, ptr %9) #10
  %49 = load i32, ptr %11, align 4
  switch i32 %49, label %63 [
    i32 0, label %50
  ]

50:                                               ; preds = %48
  br label %51

51:                                               ; preds = %50
  %52 = load i32, ptr %8, align 4, !tbaa !3
  %53 = add nsw i32 %52, 2
  store i32 %53, ptr %8, align 4, !tbaa !3
  br label %14, !llvm.loop !97

54:                                               ; preds = %14
  %55 = load ptr, ptr %5, align 8, !tbaa !93
  %56 = call i32 @SSL_CONF_CTX_finish(ptr noundef %55)
  %57 = icmp ne i32 %56, 0
  br i1 %57, label %62, label %58

58:                                               ; preds = %54
  %59 = load ptr, ptr @bio_err, align 8, !tbaa !14
  %60 = call i32 @BIO_puts(ptr noundef %59, ptr noundef @.str.111)
  %61 = load ptr, ptr @bio_err, align 8, !tbaa !14
  call void @ERR_print_errors(ptr noundef %61)
  store i32 0, ptr %4, align 4
  store i32 1, ptr %11, align 4
  br label %63

62:                                               ; preds = %54
  store i32 1, ptr %4, align 4
  store i32 1, ptr %11, align 4
  br label %63

63:                                               ; preds = %62, %58, %48
  call void @llvm.lifetime.end.p0(i64 4, ptr %8) #10
  %64 = load i32, ptr %4, align 4
  ret i32 %64
}