; Function Attrs: nounwind uwtable
define range(i32 0, 2) i32 @config_ctx(ptr noundef %0, ptr noundef %1, ptr noundef %2) local_unnamed_addr #0 {
  tail call void @SSL_CONF_CTX_set_ssl_ctx(ptr noundef %0, ptr noundef %2) #6
  %4 = tail call i32 @OPENSSL_sk_num(ptr noundef %1) #6
  %5 = icmp sgt i32 %4, 0
  br i1 %5, label %.critedge, label %._crit_edge

6:                                                ; preds = %.critedge
  %7 = add nuw nsw i32 %.01820, 2
  %8 = tail call i32 @OPENSSL_sk_num(ptr noundef %1) #6
  %9 = icmp slt i32 %7, %8
  br i1 %9, label %.critedge, label %._crit_edge, !llvm.loop !69

.critedge:                                        ; preds = %3, %6
  %.01820 = phi i32 [ %7, %6 ], [ 0, %3 ]
  %10 = tail call ptr @OPENSSL_sk_value(ptr noundef %1, i32 noundef %.01820) #6
  %11 = or disjoint i32 %.01820, 1
  %12 = tail call ptr @OPENSSL_sk_value(ptr noundef %1, i32 noundef %11) #6
  %13 = tail call i32 @SSL_CONF_cmd(ptr noundef %0, ptr noundef %10, ptr noundef %12) #6
  %14 = icmp sgt i32 %13, 0
  br i1 %14, label %6, label %15

15:                                               ; preds = %.critedge
  %16 = load ptr, ptr @bio_err, align 8, !tbaa !8
  %17 = icmp eq ptr %12, null
  %18 = select i1 %17, ptr @.str.110, ptr %12
  %19 = tail call i32 (ptr, ptr, ...) @BIO_printf(ptr noundef %16, ptr noundef nonnull @.str.109, ptr noundef %10, ptr noundef nonnull %18) #6
  br label %.sink.split

._crit_edge:                                      ; preds = %6, %3
  %20 = tail call i32 @SSL_CONF_CTX_finish(ptr noundef %0) #6
  %.not = icmp eq i32 %20, 0
  br i1 %.not, label %21, label %25

21:                                               ; preds = %._crit_edge
  %22 = load ptr, ptr @bio_err, align 8, !tbaa !8
  %23 = tail call i32 @BIO_puts(ptr noundef %22, ptr noundef nonnull @.str.111) #6
  br label %.sink.split

.sink.split:                                      ; preds = %21, %15
  %24 = load ptr, ptr @bio_err, align 8, !tbaa !8
  tail call void @ERR_print_errors(ptr noundef %24) #6
  br label %25

25:                                               ; preds = %.sink.split, %._crit_edge
  %.2 = phi i32 [ 1, %._crit_edge ], [ 0, %.sink.split ]
  ret i32 %.2
}